#include <math.h>
#include <stdio.h>
#include <stdlib.h>
#include <string.h>

int main()
{
	int n,a,b,len;
	char z[300];
	scanf("%d",&n);
	for(a=0;a<=n-1;a++)
	{
		scanf("%s",z);
		len=strlen(z);
		for(b=0;b<=len-1;b++)
		{
			if(z[b]=='A') 
			{
				z[b]='T';
				continue;
			}
            if(z[b]=='T') 
			{
				z[b]='A';
				continue;
			}
			if(z[b]=='G') 
			{
				z[b]='C';
				continue;
			}
			if(z[b]=='C') 
			{
				z[b]='G';
				continue;
			}
		}
		printf("%s\n",z);
	}
	return 0;
}